target datalayout = "e-m:e-p270:32:32-p271:32:32-p272:64:64-i64:64-i128:128-f80:128-n8:16:32:64-S128"
target triple = "x86_64-pc-linux-gnu"

%struct.SurfaceDataBounds = type { i32, i32, i32, i32 }

; Function Attrs: nounwind uwtable
define internal void @RefineBounds(ptr noundef %0, i32 noundef %1, i32 noundef %2, ptr noundef %3, ptr noundef %4, i32 noundef %5) #0 {
  %7 = alloca ptr, align 8
  %8 = alloca i32, align 4
  %9 = alloca i32, align 4
  %10 = alloca ptr, align 8
  %11 = alloca ptr, align 8
  %12 = alloca i32, align 4
  %13 = alloca i32, align 4
  %14 = alloca i32, align 4
  %15 = alloca i32, align 4
  %16 = alloca i32, align 4
  %17 = alloca i32, align 4
  %18 = alloca i32, align 4
  store ptr %0, ptr %7, align 8
  store i32 %1, ptr %8, align 4
  store i32 %2, ptr %9, align 4
  store ptr %3, ptr %10, align 8
  store ptr %4, ptr %11, align 8
  store i32 %5, ptr %12, align 4
  %19 = load i32, ptr %12, align 4
  %20 = icmp sgt i32 %19, 0
  br i1 %20, label %21, label %128

21:                                               ; preds = %6
  %22 = load i32, ptr %8, align 4
  %23 = load ptr, ptr %10, align 8
  %24 = getelementptr inbounds i32, ptr %23, i32 1
  store ptr %24, ptr %10, align 8
  %25 = load i32, ptr %23, align 4
  %26 = add nsw i32 %22, %25
  store i32 %26, ptr %15, align 4
  store i32 %26, ptr %13, align 4
  %27 = load i32, ptr %9, align 4
  %28 = load ptr, ptr %11, align 8
  %29 = getelementptr inbounds i32, ptr %28, i32 1
  store ptr %29, ptr %11, align 8
  %30 = load i32, ptr %28, align 4
  %31 = add nsw i32 %27, %30
  store i32 %31, ptr %16, align 4
  store i32 %31, ptr %14, align 4
  br label %32

32:                                               ; preds = %70, %21
  %33 = load i32, ptr %12, align 4
  %34 = add nsw i32 %33, -1
  store i32 %34, ptr %12, align 4
  %35 = icmp sgt i32 %34, 0
  br i1 %35, label %36, label %71

36:                                               ; preds = %32
  %37 = load i32, ptr %8, align 4
  %38 = load ptr, ptr %10, align 8
  %39 = getelementptr inbounds i32, ptr %38, i32 1
  store ptr %39, ptr %10, align 8
  %40 = load i32, ptr %38, align 4
  %41 = add nsw i32 %37, %40
  store i32 %41, ptr %17, align 4
  %42 = load i32, ptr %9, align 4
  %43 = load ptr, ptr %11, align 8
  %44 = getelementptr inbounds i32, ptr %43, i32 1
  store ptr %44, ptr %11, align 8
  %45 = load i32, ptr %43, align 4
  %46 = add nsw i32 %42, %45
  store i32 %46, ptr %18, align 4
  %47 = load i32, ptr %13, align 4
  %48 = load i32, ptr %17, align 4
  %49 = icmp sgt i32 %47, %48
  br i1 %49, label %50, label %52

50:                                               ; preds = %36
  %51 = load i32, ptr %17, align 4
  store i32 %51, ptr %13, align 4
  br label %52

52:                                               ; preds = %50, %36
  %53 = load i32, ptr %14, align 4
  %54 = load i32, ptr %18, align 4
  %55 = icmp sgt i32 %53, %54
  br i1 %55, label %56, label %58

56:                                               ; preds = %52
  %57 = load i32, ptr %18, align 4
  store i32 %57, ptr %14, align 4
  br label %58

58:                                               ; preds = %56, %52
  %59 = load i32, ptr %15, align 4
  %60 = load i32, ptr %17, align 4
  %61 = icmp slt i32 %59, %60
  br i1 %61, label %62, label %64

62:                                               ; preds = %58
  %63 = load i32, ptr %17, align 4
  store i32 %63, ptr %15, align 4
  br label %64

64:                                               ; preds = %62, %58
  %65 = load i32, ptr %16, align 4
  %66 = load i32, ptr %18, align 4
  %67 = icmp slt i32 %65, %66
  br i1 %67, label %68, label %70

68:                                               ; preds = %64
  %69 = load i32, ptr %18, align 4
  store i32 %69, ptr %16, align 4
  br label %70

70:                                               ; preds = %68, %64
  br label %32, !llvm.loop !8

71:                                               ; preds = %32
  %72 = load i32, ptr %15, align 4
  %73 = add nsw i32 %72, 1
  store i32 %73, ptr %15, align 4
  %74 = load i32, ptr %13, align 4
  %75 = icmp slt i32 %73, %74
  br i1 %75, label %76, label %79

76:                                               ; preds = %71
  %77 = load i32, ptr %15, align 4
  %78 = add nsw i32 %77, -1
  store i32 %78, ptr %15, align 4
  br label %79

79:                                               ; preds = %76, %71
  %80 = load i32, ptr %16, align 4
  %81 = add nsw i32 %80, 1
  store i32 %81, ptr %16, align 4
  %82 = load i32, ptr %14, align 4
  %83 = icmp slt i32 %81, %82
  br i1 %83, label %84, label %87

84:                                               ; preds = %79
  %85 = load i32, ptr %16, align 4
  %86 = add nsw i32 %85, -1
  store i32 %86, ptr %16, align 4
  br label %87

87:                                               ; preds = %84, %79
  %88 = load ptr, ptr %7, align 8
  %89 = getelementptr inbounds %struct.SurfaceDataBounds, ptr %88, i32 0, i32 0
  %90 = load i32, ptr %89, align 4
  %91 = load i32, ptr %13, align 4
  %92 = icmp slt i32 %90, %91
  br i1 %92, label %93, label %97

93:                                               ; preds = %87
  %94 = load i32, ptr %13, align 4
  %95 = load ptr, ptr %7, align 8
  %96 = getelementptr inbounds %struct.SurfaceDataBounds, ptr %95, i32 0, i32 0
  store i32 %94, ptr %96, align 4
  br label %97

97:                                               ; preds = %93, %87
  %98 = load ptr, ptr %7, align 8
  %99 = getelementptr inbounds %struct.SurfaceDataBounds, ptr %98, i32 0, i32 1
  %100 = load i32, ptr %99, align 4
  %101 = load i32, ptr %14, align 4
  %102 = icmp slt i32 %100, %101
  br i1 %102, label %103, label %107

103:                                              ; preds = %97
  %104 = load i32, ptr %14, align 4
  %105 = load ptr, ptr %7, align 8
  %106 = getelementptr inbounds %struct.SurfaceDataBounds, ptr %105, i32 0, i32 1
  store i32 %104, ptr %106, align 4
  br label %107

107:                                              ; preds = %103, %97
  %108 = load ptr, ptr %7, align 8
  %109 = getelementptr inbounds %struct.SurfaceDataBounds, ptr %108, i32 0, i32 2
  %110 = load i32, ptr %109, align 4
  %111 = load i32, ptr %15, align 4
  %112 = icmp sgt i32 %110, %111
  br i1 %112, label %113, label %117

113:                                              ; preds = %107
  %114 = load i32, ptr %15, align 4
  %115 = load ptr, ptr %7, align 8
  %116 = getelementptr inbounds %struct.SurfaceDataBounds, ptr %115, i32 0, i32 2
  store i32 %114, ptr %116, align 4
  br label %117

117:                                              ; preds = %113, %107
  %118 = load ptr, ptr %7, align 8
  %119 = getelementptr inbounds %struct.SurfaceDataBounds, ptr %118, i32 0, i32 3
  %120 = load i32, ptr %119, align 4
  %121 = load i32, ptr %16, align 4
  %122 = icmp sgt i32 %120, %121
  br i1 %122, label %123, label %127

123:                                              ; preds = %117
  %124 = load i32, ptr %16, align 4
  %125 = load ptr, ptr %7, align 8
  %126 = getelementptr inbounds %struct.SurfaceDataBounds, ptr %125, i32 0, i32 3
  store i32 %124, ptr %126, align 4
  br label %127

127:                                              ; preds = %123, %117
  br label %139

128:                                              ; preds = %6
  %129 = load ptr, ptr %7, align 8
  %130 = getelementptr inbounds %struct.SurfaceDataBounds, ptr %129, i32 0, i32 0
  %131 = load i32, ptr %130, align 4
  %132 = load ptr, ptr %7, align 8
  %133 = getelementptr inbounds %struct.SurfaceDataBounds, ptr %132, i32 0, i32 2
  store i32 %131, ptr %133, align 4
  %134 = load ptr, ptr %7, align 8
  %135 = getelementptr inbounds %struct.SurfaceDataBounds, ptr %134, i32 0, i32 1
  %136 = load i32, ptr %135, align 4
  %137 = load ptr, ptr %7, align 8
  %138 = getelementptr inbounds %struct.SurfaceDataBounds, ptr %137, i32 0, i32 3
  store i32 %136, ptr %138, align 4
  br label %139

139:                                              ; preds = %128, %127
  ret void
}