; Function Attrs: nofree norecurse nosync nounwind memory(read, argmem: readwrite, inaccessiblemem: none) uwtable
define internal fastcc void @RefineBounds(ptr nocapture noundef %0, i32 noundef %1, i32 noundef %2, ptr nocapture noundef readonly %3, ptr nocapture noundef readonly %4, i32 noundef %5) unnamed_addr #2 {
  %7 = icmp sgt i32 %5, 0
  br i1 %7, label %8, label %41

8:                                                ; preds = %6
  %9 = load i32, ptr %3, align 4
  %10 = add nsw i32 %9, %1
  %11 = load i32, ptr %4, align 4
  %12 = add nsw i32 %11, %2
  %.not = icmp eq i32 %5, 1
  br i1 %.not, label %._crit_edge, label %.lr.ph

.lr.ph:                                           ; preds = %8, %.lr.ph
  %.pn73 = phi ptr [ %.0, %.lr.ph ], [ %3, %8 ]
  %.pn6572 = phi ptr [ %.047, %.lr.ph ], [ %4, %8 ]
  %.04871 = phi i32 [ %.1, %.lr.ph ], [ %12, %8 ]
  %.04970 = phi i32 [ %.150, %.lr.ph ], [ %10, %8 ]
  %.05269 = phi i32 [ %.153, %.lr.ph ], [ %12, %8 ]
  %.05468 = phi i32 [ %spec.select, %.lr.ph ], [ %10, %8 ]
  %.05667 = phi i32 [ %13, %.lr.ph ], [ %5, %8 ]
  %13 = add nsw i32 %.05667, -1
  %.0 = getelementptr inbounds i8, ptr %.pn73, i64 4
  %.047 = getelementptr inbounds i8, ptr %.pn6572, i64 4
  %14 = load i32, ptr %.0, align 4
  %15 = add nsw i32 %14, %1
  %16 = load i32, ptr %.047, align 4
  %17 = add nsw i32 %16, %2
  %spec.select = tail call i32 @llvm.smin.i32(i32 %.05468, i32 %15)
  %.153 = tail call i32 @llvm.smin.i32(i32 %.05269, i32 %17)
  %.150 = tail call i32 @llvm.smax.i32(i32 %.04970, i32 %15)
  %.1 = tail call i32 @llvm.smax.i32(i32 %.04871, i32 %17)
  %18 = icmp ugt i32 %.05667, 2
  br i1 %18, label %.lr.ph, label %._crit_edge, !llvm.loop !8

._crit_edge:                                      ; preds = %.lr.ph, %8
  %.054.lcssa = phi i32 [ %10, %8 ], [ %spec.select, %.lr.ph ]
  %.052.lcssa = phi i32 [ %12, %8 ], [ %.153, %.lr.ph ]
  %.049.lcssa = phi i32 [ %10, %8 ], [ %.150, %.lr.ph ]
  %.048.lcssa = phi i32 [ %12, %8 ], [ %.1, %.lr.ph ]
  %19 = add nsw i32 %.049.lcssa, 1
  %20 = icmp slt i32 %19, %.054.lcssa
  %spec.select66 = select i1 %20, i32 %.049.lcssa, i32 %19
  %21 = add nsw i32 %.048.lcssa, 1
  %22 = icmp slt i32 %21, %.052.lcssa
  %.2 = select i1 %22, i32 %.048.lcssa, i32 %21
  %23 = load i32, ptr %0, align 4
  %24 = icmp slt i32 %23, %.054.lcssa
  br i1 %24, label %25, label %26

25:                                               ; preds = %._crit_edge
  store i32 %.054.lcssa, ptr %0, align 4
  br label %26

26:                                               ; preds = %25, %._crit_edge
  %27 = getelementptr inbounds i8, ptr %0, i64 4
  %28 = load i32, ptr %27, align 4
  %29 = icmp slt i32 %28, %.052.lcssa
  br i1 %29, label %30, label %31

30:                                               ; preds = %26
  store i32 %.052.lcssa, ptr %27, align 4
  br label %31

31:                                               ; preds = %30, %26
  %32 = getelementptr inbounds i8, ptr %0, i64 8
  %33 = load i32, ptr %32, align 4
  %34 = icmp sgt i32 %33, %spec.select66
  br i1 %34, label %35, label %36

35:                                               ; preds = %31
  store i32 %spec.select66, ptr %32, align 4
  br label %36

36:                                               ; preds = %35, %31
  %37 = getelementptr inbounds i8, ptr %0, i64 12
  %38 = load i32, ptr %37, align 4
  %39 = icmp sgt i32 %38, %.2
  br i1 %39, label %40, label %44

40:                                               ; preds = %36
  store i32 %.2, ptr %37, align 4
  br label %44

41:                                               ; preds = %6
  %42 = getelementptr inbounds i8, ptr %0, i64 8
  %43 = load <2 x i32>, ptr %0, align 4
  store <2 x i32> %43, ptr %42, align 4
  br label %44

44:                                               ; preds = %36, %40, %41
  ret void
}